target datalayout = "e-m:e-p270:32:32-p271:32:32-p272:64:64-i64:64-i128:128-f80:128-n8:16:32:64-S128"
target triple = "x86_64-pc-linux-gnu"

%"class.Luau::CodeGen::BaseCodeGenContext" = type { ptr, %"struct.Luau::CodeGen::CodeAllocator", %"class.std::unique_ptr", ptr, i64, ptr, ptr, %"struct.Luau::CodeGen::NativeContext" }
%"struct.Luau::CodeGen::CodeAllocator" = type { ptr, ptr, ptr, ptr, ptr, %"class.std::vector", %"class.std::vector.0", i64, i64, ptr, ptr }
%"class.std::vector" = type { %"struct.std::_Vector_base" }
%"struct.std::_Vector_base" = type { %"struct.std::_Vector_base<unsigned char *, std::allocator<unsigned char *>>::_Vector_impl" }
%"struct.std::_Vector_base<unsigned char *, std::allocator<unsigned char *>>::_Vector_impl" = type { %"struct.std::_Vector_base<unsigned char *, std::allocator<unsigned char *>>::_Vector_impl_data" }
%"struct.std::_Vector_base<unsigned char *, std::allocator<unsigned char *>>::_Vector_impl_data" = type { ptr, ptr, ptr }
%"class.std::vector.0" = type { %"struct.std::_Vector_base.1" }
%"struct.std::_Vector_base.1" = type { %"struct.std::_Vector_base<void *, std::allocator<void *>>::_Vector_impl" }
%"struct.std::_Vector_base<void *, std::allocator<void *>>::_Vector_impl" = type { %"struct.std::_Vector_base<void *, std::allocator<void *>>::_Vector_impl_data" }
%"struct.std::_Vector_base<void *, std::allocator<void *>>::_Vector_impl_data" = type { ptr, ptr, ptr }
%"class.std::unique_ptr" = type { %"struct.std::__uniq_ptr_data" }
%"struct.std::__uniq_ptr_data" = type { %"class.std::__uniq_ptr_impl" }
%"class.std::__uniq_ptr_impl" = type { %"class.std::tuple" }
%"class.std::tuple" = type { %"struct.std::_Tuple_impl" }
%"struct.std::_Tuple_impl" = type { %"struct.std::_Head_base.6" }
%"struct.std::_Head_base.6" = type { ptr }
%"struct.Luau::CodeGen::NativeContext" = type { ptr, ptr, ptr, ptr, ptr, ptr, ptr, ptr, ptr, ptr, ptr, ptr, ptr, ptr, ptr, ptr, ptr, ptr, ptr, ptr, ptr, ptr, ptr, ptr, ptr, ptr, ptr, ptr, ptr, ptr, ptr, ptr, ptr, ptr, ptr, ptr, ptr, ptr, ptr, ptr, ptr, ptr, ptr, ptr, ptr, ptr, ptr, ptr, ptr, ptr, ptr, ptr, ptr, ptr, ptr, ptr, ptr, ptr, ptr, ptr, ptr, ptr, ptr, ptr, ptr, ptr, ptr, ptr, ptr, ptr, ptr, [256 x ptr] }
%struct.Proto = type { i8, i8, i8, i8, i8, i8, i8, i8, ptr, ptr, ptr, ptr, ptr, i64, ptr, ptr, ptr, ptr, ptr, ptr, ptr, ptr, ptr, ptr, i32, i32, i32, i32, i32, i32, i32, i32, i32, i32 }
%struct.lua_State = type { i8, i8, i8, i8, i8, i8, i8, ptr, ptr, ptr, ptr, ptr, ptr, ptr, ptr, i32, i32, i16, i16, i32, ptr, ptr, ptr, ptr, ptr }
%struct.global_State = type { %struct.stringtable, ptr, ptr, i8, i8, ptr, ptr, ptr, i64, i64, i32, i32, i32, [40 x ptr], [40 x ptr], ptr, ptr, ptr, [256 x i64], ptr, %struct.UpVal, [11 x ptr], [11 x ptr], [21 x ptr], %struct.lua_TValue, %struct.lua_TValue, i32, ptr, i64, [4 x i64], %struct.lua_Callbacks, %struct.lua_ExecutionCallbacks, [128 x ptr], [128 x ptr], [128 x ptr], %struct.GCStats }
%struct.stringtable = type { ptr, i32, i32 }
%struct.UpVal = type { i8, i8, i8, i8, ptr, %union.anon }
%union.anon = type { %struct.anon }
%struct.anon = type { ptr, ptr, ptr }
%struct.lua_TValue = type { %union.Value, [1 x i32], i32 }
%union.Value = type { ptr }
%struct.lua_Callbacks = type { ptr, ptr, ptr, ptr, ptr, ptr, ptr, ptr, ptr, ptr }
%struct.lua_ExecutionCallbacks = type { ptr, ptr, ptr, ptr, ptr, ptr, ptr }
%struct.GCStats = type { [32 x i32], i32, i32, i64, i64, i64, double, double, double }
%struct.CallInfo = type { ptr, ptr, ptr, ptr, i32, i32 }

; Function Attrs: mustprogress nounwind uwtable
define internal noundef ptr @_ZN4Luau7CodeGenL17getCodeGenContextEP9lua_State(ptr noundef %0) #1 {
  %2 = alloca ptr, align 8
  store ptr %0, ptr %2, align 8, !tbaa !214
  %3 = load ptr, ptr %2, align 8, !tbaa !214
  %4 = getelementptr inbounds nuw %struct.lua_State, ptr %3, i32 0, i32 9
  %5 = load ptr, ptr %4, align 8, !tbaa !219
  %6 = getelementptr inbounds nuw %struct.global_State, ptr %5, i32 0, i32 31
  %7 = getelementptr inbounds nuw %struct.lua_ExecutionCallbacks, ptr %6, i32 0, i32 0
  %8 = load ptr, ptr %7, align 8, !tbaa !294
  ret ptr %8
}

; Function Attrs: mustprogress uwtable
define internal noundef i32 @_ZN4Luau7CodeGenL7onEnterEP9lua_StateP5Proto(ptr noundef %0, ptr noundef %1) #2 {
  %3 = alloca ptr, align 8
  %4 = alloca ptr, align 8
  %5 = alloca ptr, align 8
  %6 = alloca i64, align 8
  store ptr %0, ptr %3, align 8, !tbaa !214
  store ptr %1, ptr %4, align 8, !tbaa !167
  call void @llvm.lifetime.start.p0(i64 8, ptr %5) #17
  %7 = load ptr, ptr %3, align 8, !tbaa !214
  %8 = call noundef ptr @_ZN4Luau7CodeGenL17getCodeGenContextEP9lua_State(ptr noundef %7) #17
  store ptr %8, ptr %5, align 8, !tbaa !23
  call void @llvm.lifetime.start.p0(i64 8, ptr %6) #17
  %9 = load ptr, ptr %4, align 8, !tbaa !167
  %10 = getelementptr inbounds nuw %struct.Proto, ptr %9, i32 0, i32 13
  %11 = load i64, ptr %10, align 8, !tbaa !184
  %12 = load ptr, ptr %4, align 8, !tbaa !167
  %13 = getelementptr inbounds nuw %struct.Proto, ptr %12, i32 0, i32 12
  %14 = load ptr, ptr %13, align 8, !tbaa !183
  %15 = load ptr, ptr %3, align 8, !tbaa !214
  %16 = getelementptr inbounds nuw %struct.lua_State, ptr %15, i32 0, i32 10
  %17 = load ptr, ptr %16, align 8, !tbaa !295
  %18 = getelementptr inbounds nuw %struct.CallInfo, ptr %17, i32 0, i32 3
  %19 = load ptr, ptr %18, align 8, !tbaa !296
  %20 = load ptr, ptr %4, align 8, !tbaa !167
  %21 = getelementptr inbounds nuw %struct.Proto, ptr %20, i32 0, i32 9
  %22 = load ptr, ptr %21, align 8, !tbaa !298
  %23 = ptrtoint ptr %19 to i64
  %24 = ptrtoint ptr %22 to i64
  %25 = sub i64 %23, %24
  %26 = sdiv exact i64 %25, 4
  %27 = getelementptr inbounds i32, ptr %14, i64 %26
  %28 = load i32, ptr %27, align 4, !tbaa !11
  %29 = zext i32 %28 to i64
  %30 = add i64 %11, %29
  store i64 %30, ptr %6, align 8, !tbaa !25
  %31 = load ptr, ptr %5, align 8, !tbaa !23
  %32 = getelementptr inbounds nuw %"class.Luau::CodeGen::BaseCodeGenContext", ptr %31, i32 0, i32 7
  %33 = getelementptr inbounds nuw %"struct.Luau::CodeGen::NativeContext", ptr %32, i32 0, i32 0
  %34 = load ptr, ptr %33, align 8, !tbaa !139
  %35 = load ptr, ptr %3, align 8, !tbaa !214
  %36 = load ptr, ptr %4, align 8, !tbaa !167
  %37 = load i64, ptr %6, align 8, !tbaa !25
  %38 = load ptr, ptr %5, align 8, !tbaa !23
  %39 = getelementptr inbounds nuw %"class.Luau::CodeGen::BaseCodeGenContext", ptr %38, i32 0, i32 7
  %40 = call noundef i32 %34(ptr noundef %35, ptr noundef %36, i64 noundef %37, ptr noundef %39)
  call void @llvm.lifetime.end.p0(i64 8, ptr %6) #17
  call void @llvm.lifetime.end.p0(i64 8, ptr %5) #17
  ret i32 %40
}