; Function Attrs: mustprogress uwtable
define internal noundef i32 @_ZN4Luau7CodeGenL7onEnterEP9lua_StateP5Proto(ptr noundef %0, ptr noundef %1) #1 {
  %3 = getelementptr i8, ptr %0, i64 24
  %.val = load ptr, ptr %3, align 8, !tbaa !121
  %4 = getelementptr i8, ptr %.val, i64 3368
  %.val.val = load ptr, ptr %4, align 8, !tbaa !148
  %5 = getelementptr inbounds nuw i8, ptr %1, i64 48
  %6 = load i64, ptr %5, align 8, !tbaa !77
  %7 = getelementptr inbounds nuw i8, ptr %1, i64 40
  %8 = load ptr, ptr %7, align 8, !tbaa !75
  %9 = getelementptr inbounds nuw i8, ptr %0, i64 32
  %10 = load ptr, ptr %9, align 8, !tbaa !313
  %11 = getelementptr inbounds nuw i8, ptr %10, i64 24
  %12 = load ptr, ptr %11, align 8, !tbaa !314
  %13 = getelementptr inbounds nuw i8, ptr %1, i64 16
  %14 = load ptr, ptr %13, align 8, !tbaa !316
  %15 = ptrtoint ptr %12 to i64
  %16 = ptrtoint ptr %14 to i64
  %17 = sub i64 %15, %16
  %18 = getelementptr inbounds i8, ptr %8, i64 %17
  %19 = load i32, ptr %18, align 4, !tbaa !279
  %20 = zext i32 %19 to i64
  %21 = add i64 %6, %20
  %22 = getelementptr inbounds nuw i8, ptr %.val.val, i64 168
  %23 = load ptr, ptr %22, align 8, !tbaa !48
  %24 = tail call noundef i32 %23(ptr noundef %0, ptr noundef %1, i64 noundef %21, ptr noundef nonnull %22)
  ret i32 %24
}